; Function Attrs: mustprogress nofree norecurse nosync nounwind willreturn memory(argmem: write) uwtable
define void @_ZN17double_conversion16PowersOfTenCache32GetCachedPowerForDecimalExponentEiPNS_5DiyFpEPi(i32 noundef %0, ptr noundef writeonly captures(none) initializes((0, 12)) %1, ptr noundef writeonly captures(none) initializes((0, 4)) %2) local_unnamed_addr #0 {
  %4 = add nsw i32 %0, 348
  %5 = sdiv i32 %4, 8
  %6 = sext i32 %5 to i64
  %7 = getelementptr inbounds [87 x %"struct.double_conversion::PowersOfTenCache::CachedPower"], ptr @_ZN17double_conversion16PowersOfTenCacheL13kCachedPowersE, i64 0, i64 %6
  %.sroa.0.0.copyload = load i64, ptr %7, align 16, !tbaa !3
  %.sroa.4.0..sroa_idx = getelementptr inbounds nuw i8, ptr %7, i64 8
  %.sroa.4.0.copyload = load i16, ptr %.sroa.4.0..sroa_idx, align 8, !tbaa !7
  %.sroa.5.0..sroa_idx = getelementptr inbounds nuw i8, ptr %7, i64 10
  %.sroa.5.0.copyload = load i16, ptr %.sroa.5.0..sroa_idx, align 2, !tbaa !7
  %8 = sext i16 %.sroa.4.0.copyload to i32
  store i64 %.sroa.0.0.copyload, ptr %1, align 8, !tbaa !3
  %.sroa.4.0..sroa_idx4 = getelementptr inbounds nuw i8, ptr %1, i64 8
  store i32 %8, ptr %.sroa.4.0..sroa_idx4, align 8, !tbaa !9
  %9 = sext i16 %.sroa.5.0.copyload to i32
  store i32 %9, ptr %2, align 4, !tbaa !9
  ret void
}